target datalayout = "e-m:e-p270:32:32-p271:32:32-p272:64:64-i64:64-i128:128-f80:128-n8:16:32:64-S128"
target triple = "x86_64-pc-linux-gnu"

%struct.IDEDMAOps = type { ptr, ptr, ptr, ptr, ptr, ptr, ptr, ptr, ptr, ptr }
%struct.AHCIState = type { ptr, %struct.AHCIControlRegs, %struct.MemoryRegion, %struct.MemoryRegion, i32, i32, i32, ptr, ptr }
%struct.AHCIControlRegs = type { i32, i32, i32, i32, i32 }
%struct.MemoryRegion = type { %struct.Object, i8, i8, i8, i8, i8, i8, i8, i8, i8, i8, ptr, ptr, ptr, ptr, ptr, ptr, i32, i128, i64, ptr, i64, i8, i8, i8, i8, ptr, i64, i32, %union.anon, %union.anon.0, %union.anon.1, ptr, i32, ptr, ptr, i8 }
%struct.Object = type { ptr, ptr, ptr, i32, ptr }
%union.anon = type { %struct.QTailQLink }
%struct.QTailQLink = type { ptr, ptr }
%union.anon.0 = type { %struct.QTailQLink }
%union.anon.1 = type { %struct.QTailQLink }
%struct.AHCIDevice = type { %struct.IDEDMA, %struct.IDEBus, i32, i32, i32, %struct.AHCIPortRegs, ptr, ptr, ptr, ptr, i8, i32, i8, ptr, [32 x %struct.NCQTransferState], %struct.MemReentrancyGuard }
%struct.IDEDMA = type { ptr, %struct.QEMUIOVector, ptr }
%struct.QEMUIOVector = type { ptr, i32, %union.anon.3 }
%union.anon.3 = type { %struct.anon.4 }
%struct.anon.4 = type { i32, %struct.iovec }
%struct.iovec = type { ptr, i64 }
%struct.IDEBus = type { %struct.BusState, ptr, ptr, [2 x %struct.IDEState], ptr, i32, i32, ptr, i8, i8, ptr, i32, i8, i64, i32, %struct.PortioList, %struct.PortioList, ptr }
%struct.BusState = type { %struct.Object, ptr, ptr, ptr, i32, i8, i8, i32, %union.BusChildHead, %struct.BusStateEntry, %struct.ResettableState }
%union.BusChildHead = type { %struct.QTailQLink }
%struct.BusStateEntry = type { ptr, ptr }
%struct.ResettableState = type { i32, i8, i8 }
%struct.IDEState = type { ptr, i8, i32, i32, i32, i32, i32, i32, i32, i64, i32, i32, [512 x i8], i32, [21 x i8], [41 x i8], i8, i64, i8, i8, i32, i8, i8, i8, i8, i8, i8, i8, i8, i8, i8, i8, i8, i8, ptr, [9 x i8], %struct.unreported_events, i8, i8, i8, i8, i8, i32, i32, i32, i32, i32, i32, %struct.BlockAcctCookie, ptr, %struct.QEMUIOVector, %struct.anon.6, i64, i32, %struct.QEMUSGList, i32, ptr, ptr, ptr, ptr, i32, i32, i32, i8, ptr, i32, i8, i32, ptr, i32, i32, i8, i8, i32, i8, ptr, i32 }
%struct.unreported_events = type { i8, i8 }
%struct.BlockAcctCookie = type { i64, i64, i32 }
%struct.anon.6 = type { ptr }
%struct.QEMUSGList = type { ptr, i32, i32, i64, ptr, ptr }
%struct.PortioList = type { ptr, ptr, ptr, i32, i32, ptr, ptr, ptr, i8 }
%struct.AHCIPortRegs = type { i32, i32, i32, i32, i32, i32, i32, i32, i32, i32, i32, i32, i32, i32, i32, i32 }
%struct.NCQTransferState = type { ptr, ptr, ptr, %struct.QEMUSGList, %struct.BlockAcctCookie, i32, i64, i8, i8, i8, i8, i8 }
%struct.MemReentrancyGuard = type { i8 }

@.str.2 = private unnamed_addr constant [13 x i8] c"s->ports > 0\00", align 1
@.str.3 = private unnamed_addr constant [22 x i8] c"../qemu/hw/ide/ahci.c\00", align 1
@__PRETTY_FUNCTION__.ahci_realize = private unnamed_addr constant [62 x i8] c"void ahci_realize(AHCIState *, DeviceState *, AddressSpace *)\00", align 1
@ahci_dma_ops = internal constant %struct.IDEDMAOps { ptr @ahci_start_dma, ptr @ahci_pio_transfer, ptr @ahci_dma_prepare_buf, ptr @ahci_commit_buf, ptr @ahci_dma_rw_buf, ptr @ahci_restart, ptr @ahci_restart_dma, ptr null, ptr @ahci_cmd_done, ptr null }, align 8

; Function Attrs: nounwind sspstrong uwtable
define internal void @ahci_reg_init(ptr noundef %0) #0 {
  %2 = alloca ptr, align 8
  %3 = alloca i32, align 4
  store ptr %0, ptr %2, align 8
  call void @llvm.lifetime.start.p0(i64 4, ptr %3) #15
  store i32 0, ptr %3, align 4, !annotation !4
  %4 = load ptr, ptr %2, align 8
  %5 = getelementptr inbounds nuw %struct.AHCIState, ptr %4, i32 0, i32 6
  %6 = load i32, ptr %5, align 8
  %7 = sub i32 %6, 1
  %8 = or i32 %7, 7936
  %9 = or i32 %8, 1048576
  %10 = or i32 %9, 1073741824
  %11 = or i32 %10, 262144
  %12 = or i32 %11, -2147483648
  %13 = load ptr, ptr %2, align 8
  %14 = getelementptr inbounds nuw %struct.AHCIState, ptr %13, i32 0, i32 1
  %15 = getelementptr inbounds nuw %struct.AHCIControlRegs, ptr %14, i32 0, i32 0
  store i32 %12, ptr %15, align 8
  %16 = load ptr, ptr %2, align 8
  %17 = getelementptr inbounds nuw %struct.AHCIState, ptr %16, i32 0, i32 6
  %18 = load i32, ptr %17, align 8
  %19 = shl i32 1, %18
  %20 = sub i32 %19, 1
  %21 = load ptr, ptr %2, align 8
  %22 = getelementptr inbounds nuw %struct.AHCIState, ptr %21, i32 0, i32 1
  %23 = getelementptr inbounds nuw %struct.AHCIControlRegs, ptr %22, i32 0, i32 3
  store i32 %20, ptr %23, align 4
  %24 = load ptr, ptr %2, align 8
  %25 = getelementptr inbounds nuw %struct.AHCIState, ptr %24, i32 0, i32 1
  %26 = getelementptr inbounds nuw %struct.AHCIControlRegs, ptr %25, i32 0, i32 4
  store i32 65536, ptr %26, align 8
  store i32 0, ptr %3, align 4
  br label %27

27:                                               ; preds = %41, %1
  %28 = load i32, ptr %3, align 4
  %29 = load ptr, ptr %2, align 8
  %30 = getelementptr inbounds nuw %struct.AHCIState, ptr %29, i32 0, i32 6
  %31 = load i32, ptr %30, align 8
  %32 = icmp ult i32 %28, %31
  br i1 %32, label %33, label %44

33:                                               ; preds = %27
  %34 = load ptr, ptr %2, align 8
  %35 = getelementptr inbounds nuw %struct.AHCIState, ptr %34, i32 0, i32 0
  %36 = load ptr, ptr %35, align 16
  %37 = load i32, ptr %3, align 4
  %38 = sext i32 %37 to i64
  %39 = getelementptr inbounds %struct.AHCIDevice, ptr %36, i64 %38
  %40 = getelementptr inbounds nuw %struct.AHCIDevice, ptr %39, i32 0, i32 3
  store i32 0, ptr %40, align 4
  br label %41

41:                                               ; preds = %33
  %42 = load i32, ptr %3, align 4
  %43 = add i32 %42, 1
  store i32 %43, ptr %3, align 4
  br label %27, !llvm.loop !7

44:                                               ; preds = %27
  call void @llvm.lifetime.end.p0(i64 4, ptr %3) #15
  ret void
}

; Function Attrs: nounwind sspstrong uwtable
define dso_local void @ahci_realize(ptr noundef %0, ptr noundef %1, ptr noundef %2) #0 {
  %4 = alloca ptr, align 8
  %5 = alloca ptr, align 8
  %6 = alloca ptr, align 8
  %7 = alloca ptr, align 8
  %8 = alloca i32, align 4
  %9 = alloca i64, align 8
  %10 = alloca i64, align 8
  %11 = alloca ptr, align 8
  %12 = alloca ptr, align 8
  %13 = alloca ptr, align 8
  store ptr %0, ptr %4, align 8
  store ptr %1, ptr %5, align 8
  store ptr %2, ptr %6, align 8
  call void @llvm.lifetime.start.p0(i64 8, ptr %7) #15
  store ptr null, ptr %7, align 8, !annotation !4
  call void @llvm.lifetime.start.p0(i64 4, ptr %8) #15
  store i32 0, ptr %8, align 4, !annotation !4
  %14 = load ptr, ptr %6, align 8
  %15 = load ptr, ptr %4, align 8
  %16 = getelementptr inbounds nuw %struct.AHCIState, ptr %15, i32 0, i32 8
  store ptr %14, ptr %16, align 8
  %17 = load ptr, ptr %4, align 8
  %18 = getelementptr inbounds nuw %struct.AHCIState, ptr %17, i32 0, i32 6
  %19 = load i32, ptr %18, align 8
  %20 = icmp ugt i32 %19, 0
  br i1 %20, label %21, label %22

21:                                               ; preds = %3
  br label %23

22:                                               ; preds = %3
  call void @__assert_fail(ptr noundef @.str.2, ptr noundef @.str.3, i32 noundef 1591, ptr noundef @__PRETTY_FUNCTION__.ahci_realize) #16
  unreachable

23:                                               ; preds = %21
  call void @llvm.lifetime.start.p0(i64 8, ptr %9) #15
  %24 = load ptr, ptr %4, align 8
  %25 = getelementptr inbounds nuw %struct.AHCIState, ptr %24, i32 0, i32 6
  %26 = load i32, ptr %25, align 8
  %27 = zext i32 %26 to i64
  store i64 %27, ptr %9, align 8
  call void @llvm.lifetime.start.p0(i64 8, ptr %10) #15
  store i64 6088, ptr %10, align 8
  call void @llvm.lifetime.start.p0(i64 8, ptr %11) #15
  store ptr null, ptr %11, align 8, !annotation !4
  %28 = load i64, ptr %10, align 8
  %29 = icmp eq i64 %28, 1
  br i1 %29, label %30, label %33

30:                                               ; preds = %23
  %31 = load i64, ptr %9, align 8
  %32 = call noalias ptr @g_malloc0(i64 noundef %31) #17
  store ptr %32, ptr %11, align 8
  br label %54

33:                                               ; preds = %23
  %34 = load i64, ptr %9, align 8
  %35 = call i1 @llvm.is.constant.i64(i64 %34)
  br i1 %35, label %36, label %49

36:                                               ; preds = %33
  %37 = load i64, ptr %10, align 8
  %38 = icmp eq i64 %37, 0
  br i1 %38, label %44, label %39

39:                                               ; preds = %36
  %40 = load i64, ptr %9, align 8
  %41 = load i64, ptr %10, align 8
  %42 = udiv i64 -1, %41
  %43 = icmp ule i64 %40, %42
  br i1 %43, label %44, label %49

44:                                               ; preds = %39, %36
  %45 = load i64, ptr %9, align 8
  %46 = load i64, ptr %10, align 8
  %47 = mul i64 %45, %46
  %48 = call noalias ptr @g_malloc0(i64 noundef %47) #17
  store ptr %48, ptr %11, align 8
  br label %53

49:                                               ; preds = %39, %33
  %50 = load i64, ptr %9, align 8
  %51 = load i64, ptr %10, align 8
  %52 = call noalias ptr @g_malloc0_n(i64 noundef %50, i64 noundef %51) #18
  store ptr %52, ptr %11, align 8
  br label %53

53:                                               ; preds = %49, %44
  br label %54

54:                                               ; preds = %53, %30
  %55 = load ptr, ptr %11, align 8
  store ptr %55, ptr %12, align 8
  call void @llvm.lifetime.end.p0(i64 8, ptr %11) #15
  call void @llvm.lifetime.end.p0(i64 8, ptr %10) #15
  call void @llvm.lifetime.end.p0(i64 8, ptr %9) #15
  %56 = load ptr, ptr %12, align 8
  %57 = load ptr, ptr %4, align 8
  %58 = getelementptr inbounds nuw %struct.AHCIState, ptr %57, i32 0, i32 0
  store ptr %56, ptr %58, align 16
  %59 = load ptr, ptr %4, align 8
  call void @ahci_reg_init(ptr noundef %59)
  %60 = load ptr, ptr %4, align 8
  %61 = load ptr, ptr %4, align 8
  %62 = getelementptr inbounds nuw %struct.AHCIState, ptr %61, i32 0, i32 6
  %63 = load i32, ptr %62, align 8
  %64 = call ptr @qemu_allocate_irqs(ptr noundef @ahci_irq_set, ptr noundef %60, i32 noundef %63)
  store ptr %64, ptr %7, align 8
  store i32 0, ptr %8, align 4
  br label %65

65:                                               ; preds = %107, %54
  %66 = load i32, ptr %8, align 4
  %67 = load ptr, ptr %4, align 8
  %68 = getelementptr inbounds nuw %struct.AHCIState, ptr %67, i32 0, i32 6
  %69 = load i32, ptr %68, align 8
  %70 = icmp ult i32 %66, %69
  br i1 %70, label %71, label %110

71:                                               ; preds = %65
  call void @llvm.lifetime.start.p0(i64 8, ptr %13) #15
  %72 = load ptr, ptr %4, align 8
  %73 = getelementptr inbounds nuw %struct.AHCIState, ptr %72, i32 0, i32 0
  %74 = load ptr, ptr %73, align 16
  %75 = load i32, ptr %8, align 4
  %76 = sext i32 %75 to i64
  %77 = getelementptr inbounds %struct.AHCIDevice, ptr %74, i64 %76
  store ptr %77, ptr %13, align 8
  %78 = load ptr, ptr %13, align 8
  %79 = getelementptr inbounds nuw %struct.AHCIDevice, ptr %78, i32 0, i32 1
  %80 = load ptr, ptr %5, align 8
  %81 = load i32, ptr %8, align 4
  call void @ide_bus_init(ptr noundef %79, i64 noundef 2304, ptr noundef %80, i32 noundef %81, i32 noundef 1)
  %82 = load ptr, ptr %13, align 8
  %83 = getelementptr inbounds nuw %struct.AHCIDevice, ptr %82, i32 0, i32 1
  %84 = load ptr, ptr %7, align 8
  %85 = load i32, ptr %8, align 4
  %86 = sext i32 %85 to i64
  %87 = getelementptr inbounds ptr, ptr %84, i64 %86
  %88 = load ptr, ptr %87, align 8
  call void @ide_bus_init_output_irq(ptr noundef %83, ptr noundef %88)
  %89 = load ptr, ptr %4, align 8
  %90 = load ptr, ptr %13, align 8
  %91 = getelementptr inbounds nuw %struct.AHCIDevice, ptr %90, i32 0, i32 6
  store ptr %89, ptr %91, align 8
  %92 = load i32, ptr %8, align 4
  %93 = load ptr, ptr %13, align 8
  %94 = getelementptr inbounds nuw %struct.AHCIDevice, ptr %93, i32 0, i32 2
  store i32 %92, ptr %94, align 8
  %95 = load ptr, ptr %13, align 8
  %96 = getelementptr inbounds nuw %struct.AHCIDevice, ptr %95, i32 0, i32 0
  %97 = load ptr, ptr %13, align 8
  %98 = getelementptr inbounds nuw %struct.AHCIDevice, ptr %97, i32 0, i32 1
  %99 = getelementptr inbounds nuw %struct.IDEBus, ptr %98, i32 0, i32 7
  store ptr %96, ptr %99, align 8
  %100 = load ptr, ptr %13, align 8
  %101 = getelementptr inbounds nuw %struct.AHCIDevice, ptr %100, i32 0, i32 1
  %102 = getelementptr inbounds nuw %struct.IDEBus, ptr %101, i32 0, i32 7
  %103 = load ptr, ptr %102, align 8
  %104 = getelementptr inbounds nuw %struct.IDEDMA, ptr %103, i32 0, i32 0
  store ptr @ahci_dma_ops, ptr %104, align 8
  %105 = load ptr, ptr %13, align 8
  %106 = getelementptr inbounds nuw %struct.AHCIDevice, ptr %105, i32 0, i32 1
  call void @ide_bus_register_restart_cb(ptr noundef %106)
  call void @llvm.lifetime.end.p0(i64 8, ptr %13) #15
  br label %107

107:                                              ; preds = %71
  %108 = load i32, ptr %8, align 4
  %109 = add i32 %108, 1
  store i32 %109, ptr %8, align 4
  br label %65, !llvm.loop !5

110:                                              ; preds = %65
  %111 = load ptr, ptr %7, align 8
  call void @g_free(ptr noundef %111)
  call void @llvm.lifetime.end.p0(i64 4, ptr %8) #15
  call void @llvm.lifetime.end.p0(i64 8, ptr %7) #15
  ret void
}