; Function Attrs: nounwind sspstrong uwtable
define dso_local void @ahci_realize(ptr noundef initializes((600, 608)) %0, ptr noundef %1, ptr noundef %2) local_unnamed_addr #0 {
  %4 = getelementptr inbounds nuw i8, ptr %0, i64 600
  store ptr %2, ptr %4, align 8
  %5 = getelementptr inbounds nuw i8, ptr %0, i64 584
  %6 = load i32, ptr %5, align 8
  %.not = icmp eq i32 %6, 0
  br i1 %.not, label %7, label %8

7:                                                ; preds = %3
  tail call void @__assert_fail(ptr noundef nonnull @.str.2, ptr noundef nonnull @.str.3, i32 noundef 1591, ptr noundef nonnull @__PRETTY_FUNCTION__.ahci_realize) #15
  unreachable

8:                                                ; preds = %3
  %9 = zext i32 %6 to i64
  %10 = tail call noalias ptr @g_malloc0_n(i64 noundef %9, i64 noundef 6088) #16
  store ptr %10, ptr %0, align 16
  %11 = load i32, ptr %5, align 8
  %12 = add i32 %11, 1073741823
  %13 = or i32 %12, -1072423168
  %14 = getelementptr inbounds nuw i8, ptr %0, i64 8
  store i32 %13, ptr %14, align 8
  %notmask.i = shl nsw i32 -1, %11
  %15 = xor i32 %notmask.i, -1
  %16 = getelementptr inbounds nuw i8, ptr %0, i64 20
  store i32 %15, ptr %16, align 4
  %17 = getelementptr inbounds nuw i8, ptr %0, i64 24
  store i32 65536, ptr %17, align 8
  %.not.i = icmp eq i32 %11, 0
  br i1 %.not.i, label %ahci_reg_init.exit, label %.lr.ph.i

.lr.ph.i:                                         ; preds = %8, %.lr.ph.i
  %.09.i = phi i32 [ %21, %.lr.ph.i ], [ 0, %8 ]
  %18 = load ptr, ptr %0, align 16
  %19 = sext i32 %.09.i to i64
  %20 = getelementptr inbounds %struct.AHCIDevice, ptr %18, i64 %19, i32 3
  store i32 0, ptr %20, align 4
  %21 = add nuw i32 %.09.i, 1
  %22 = load i32, ptr %5, align 8
  %23 = icmp ult i32 %21, %22
  br i1 %23, label %.lr.ph.i, label %ahci_reg_init.exit, !llvm.loop !4

ahci_reg_init.exit:                               ; preds = %.lr.ph.i, %8
  %24 = phi i32 [ 0, %8 ], [ %22, %.lr.ph.i ]
  %25 = tail call ptr @qemu_allocate_irqs(ptr noundef nonnull @ahci_irq_set, ptr noundef nonnull %0, i32 noundef %24) #14
  %26 = load i32, ptr %5, align 8
  %.not42 = icmp eq i32 %26, 0
  br i1 %.not42, label %._crit_edge, label %.lr.ph

.lr.ph:                                           ; preds = %ahci_reg_init.exit, %.lr.ph
  %.041 = phi i32 [ %36, %.lr.ph ], [ 0, %ahci_reg_init.exit ]
  %27 = load ptr, ptr %0, align 16
  %28 = sext i32 %.041 to i64
  %29 = getelementptr inbounds %struct.AHCIDevice, ptr %27, i64 %28
  %30 = getelementptr inbounds nuw i8, ptr %29, i64 56
  tail call void @ide_bus_init(ptr noundef nonnull %30, i64 noundef 2304, ptr noundef %1, i32 noundef %.041, i32 noundef 1) #14
  %31 = getelementptr inbounds ptr, ptr %25, i64 %28
  %32 = load ptr, ptr %31, align 8
  tail call void @ide_bus_init_output_irq(ptr noundef nonnull %30, ptr noundef %32) #14
  %33 = getelementptr inbounds nuw i8, ptr %29, i64 2440
  store ptr %0, ptr %33, align 8
  %34 = getelementptr inbounds nuw i8, ptr %29, i64 2360
  store i32 %.041, ptr %34, align 8
  %35 = getelementptr inbounds nuw i8, ptr %29, i64 2176
  store ptr %29, ptr %35, align 8
  store ptr @ahci_dma_ops, ptr %29, align 8
  tail call void @ide_bus_register_restart_cb(ptr noundef nonnull %30) #14
  %36 = add nuw i32 %.041, 1
  %37 = load i32, ptr %5, align 8
  %38 = icmp ult i32 %36, %37
  br i1 %38, label %.lr.ph, label %._crit_edge, !llvm.loop !6

._crit_edge:                                      ; preds = %.lr.ph, %ahci_reg_init.exit
  tail call void @g_free(ptr noundef %25) #14
  ret void
}